(dp0
S'METTS MARK'
p1
(dp2
S'to_messages'
p3
I807
sS'deferral_payments'
p4
S'NaN'
p5
sS'expenses'
p6
I94299
sS'poi'
p7
I00
sS'long_term_incentive'
p8
g5
sS'email_address'
p9
S'mark.metts@enron.com'
p10
sS'from_poi_to_this_person'
p11
I38
sS'deferred_income'
p12
g5
sS'restricted_stock_deferred'
p13
g5
sS'salary_square'
p14
L133800860944L
sS'shared_receipt_with_poi'
p15
I702
sS'loan_advances'
p16
g5
sS'from_messages'
p17
I29
sS'other'
p18
I1740
sS'director_fees'
p19
g5
sS'bonus'
p20
I600000
sS'total_stock_value'
p21
I585062
sS'bonus_square'
p22
L360000000000L
sS'from_this_person_to_poi'
p23
I1
sS'exercised_stock_square'
p24
S'NaN'
p25
sS'restricted_stock'
p26
I585062
sS'salary'
p27
I365788
sS'total_payments'
p28
I1061827
sS'exercised_stock_options'
p29
g5
ssS'BAXTER JOHN C'
p30
(dp31
g3
g5
sg4
I1295738
sg6
I11200
sg7
I00
sg8
I1586055
sg9
g5
sg11
g5
sg12
I-1386055
sg13
g5
sg14
L71343478404L
sg15
g5
sg16
g5
sg17
g5
sg18
I2660303
sg19
g5
sg20
I1200000
sg21
I10623258
sg22
L1440000000000L
sg23
g5
sg24
L44629668135936L
sg26
I3942714
sg27
I267102
sg28
I5634343
sg29
I6680544
ssS'ELLIOTT STEVEN'
p32
(dp33
g3
g5
sg4
g5
sg6
I78552
sg7
I00
sg8
g5
sg9
S'steven.elliott@enron.com'
p34
sg11
g5
sg12
I-400729
sg13
g5
sg14
L29220825481L
sg15
g5
sg16
g5
sg17
g5
sg18
I12961
sg19
g5
sg20
I350000
sg21
I6678735
sg22
L122500000000L
sg23
g5
sg24
L23915464438336L
sg26
I1788391
sg27
I170941
sg28
I211725
sg29
I4890344
ssS'CORDES WILLIAM R'
p35
(dp36
g3
I764
sg4
g5
sg6
g5
sg7
I00
sg8
g5
sg9
S'bill.cordes@enron.com'
p37
sg11
I10
sg12
g5
sg13
g5
sg14
g25
sg15
I58
sg16
g5
sg17
I12
sg18
g5
sg19
g5
sg20
g5
sg21
I1038185
sg22
g25
sg23
I0
sg24
L424908422500L
sg26
I386335
sg27
g5
sg28
g5
sg29
I651850
ssS'HANNON KEVIN P'
p38
(dp39
g3
I1045
sg4
g5
sg6
I34039
sg7
I01
sg8
I1617011
sg9
S'kevin.hannon@enron.com'
p40
sg11
I32
sg12
I-3117011
sg13
g5
sg14
L59191483849L
sg15
I1035
sg16
g5
sg17
I32
sg18
I11350
sg19
g5
sg20
I1500000
sg21
I6391065
sg22
L2250000000000L
sg23
I21
sg24
L30669455076001L
sg26
I853064
sg27
I243293
sg28
I288682
sg29
I5538001
ssS'MORDAUNT KRISTINA M'
p41
(dp42
g3
g5
sg4
g5
sg6
I35018
sg7
I00
sg8
g5
sg9
S'kristina.mordaunt@enron.com'
p43
sg11
g5
sg12
g5
sg13
g5
sg14
L71338670649L
sg15
g5
sg16
g5
sg17
g5
sg18
I1411
sg19
g5
sg20
I325000
sg21
I208510
sg22
L105625000000L
sg23
g5
sg24
g25
sg26
I208510
sg27
I267093
sg28
I628522
sg29
g5
ssS'MEYER ROCKFORD G'
p44
(dp45
g3
I232
sg4
I1848227
sg6
g5
sg7
I00
sg8
g5
sg9
S'rockford.meyer@enron.com'
p46
sg11
I0
sg12
g5
sg13
g5
sg14
g25
sg15
I22
sg16
g5
sg17
I28
sg18
g5
sg19
g5
sg20
g5
sg21
I955873
sg22
g25
sg23
I0
sg24
L243531393121L
sg26
I462384
sg27
g5
sg28
I1848227
sg29
I493489
ssS'MCMAHON JEFFREY'
p47
(dp48
g3
I2355
sg4
g5
sg6
I137108
sg7
I00
sg8
I694862
sg9
S'jeffrey.mcmahon@enron.com'
p49
sg11
I58
sg12
g5
sg13
g5
sg14
L137231720704L
sg15
I2228
sg16
g5
sg17
I48
sg18
I297353
sg19
g5
sg20
I2600000
sg21
I1662855
sg22
L6760000000000L
sg23
I26
sg24
L1218935234916L
sg26
I558801
sg27
I370448
sg28
I4099771
sg29
I1104054
ssS'HAEDICKE MARK E'
p50
(dp51
g3
I4009
sg4
I2157527
sg6
I76169
sg7
I00
sg8
I983346
sg9
S'mark.haedicke@enron.com'
p52
sg11
I180
sg12
I-934484
sg13
I-329825
sg14
L139969515625L
sg15
I1847
sg16
g5
sg17
I1941
sg18
I52382
sg19
g5
sg20
I1150000
sg21
I803094
sg22
L1322500000000L
sg23
I61
sg24
L370576562500L
sg26
I524169
sg27
I374125
sg28
I3859065
sg29
I608750
ssS'PIPER GREGORY F'
p53
(dp54
g3
I1238
sg4
I1130036
sg6
I43057
sg7
I00
sg8
g5
sg9
S'greg.piper@enron.com'
p55
sg11
I61
sg12
I-33333
sg13
I-409554
sg14
L38844862281L
sg15
I742
sg16
g5
sg17
I222
sg18
I778
sg19
g5
sg20
I400000
sg21
I880290
sg22
L160000000000L
sg23
I48
sg24
L774910484100L
sg26
I409554
sg27
I197091
sg28
I1737629
sg29
I880290
ssS'HUMPHREY GENE E'
p56
(dp57
g3
I128
sg4
I2964506
sg6
I4994
sg7
I00
sg8
g5
sg9
S'gene.humphrey@enron.com'
p58
sg11
I10
sg12
g5
sg13
g5
sg14
L17088764176L
sg15
I119
sg16
g5
sg17
I17
sg18
g5
sg19
g5
sg20
g5
sg21
I2282768
sg22
g25
sg23
I17
sg24
L5211029741824L
sg26
g5
sg27
I130724
sg28
I3100224
sg29
I2282768
ssS'NOLES JAMES L'
p59
(dp60
g3
g5
sg4
I774401
sg6
g5
sg7
I00
sg8
g5
sg9
g5
sg11
g5
sg12
g5
sg13
I-94556
sg14
g25
sg15
g5
sg16
g5
sg17
g5
sg18
g5
sg19
g5
sg20
g5
sg21
I368705
sg22
g25
sg23
g5
sg24
g25
sg26
I463261
sg27
g5
sg28
I774401
sg29
g5
ssS'BLACHMAN JEREMY M'
p61
(dp62
g3
I2475
sg4
g5
sg6
I84208
sg7
I00
sg8
I831809
sg9
S'jeremy.blachman@enron.com'
p63
sg11
I25
sg12
g5
sg13
g5
sg14
L61775114116L
sg15
I2326
sg16
g5
sg17
I14
sg18
I272
sg19
g5
sg20
I850000
sg21
I954354
sg22
L722500000000L
sg23
I2
sg24
L585703987969L
sg26
I189041
sg27
I248546
sg28
I2014835
sg29
I765313
ssS'SUNDE MARTIN'
p64
(dp65
g3
I2647
sg4
g5
sg6
g5
sg7
I00
sg8
I476451
sg9
S'marty.sunde@enron.com'
p66
sg11
I37
sg12
g5
sg13
g5
sg14
L66299040196L
sg15
I2565
sg16
g5
sg17
I38
sg18
I111122
sg19
g5
sg20
I700000
sg21
I698920
sg22
L490000000000L
sg23
I13
sg24
g25
sg26
I698920
sg27
I257486
sg28
I1545059
sg29
g5
ssS'GIBBS DANA R'
p67
(dp68
g3
I169
sg4
I504610
sg6
g5
sg7
I00
sg8
I461912
sg9
S'dana.gibbs@enron.com'
p69
sg11
I0
sg12
g5
sg13
g5
sg14
g25
sg15
I23
sg16
g5
sg17
I12
sg18
g5
sg19
g5
sg20
g5
sg21
I2218275
sg22
g25
sg23
I0
sg24
L4920743975625L
sg26
g5
sg27
g5
sg28
I966522
sg29
I2218275
ssS'LOWRY CHARLES P'
p70
(dp71
g3
g5
sg4
g5
sg6
g5
sg7
I00
sg8
g5
sg9
g5
sg11
g5
sg12
g5
sg13
I-153686
sg14
g25
sg15
g5
sg16
g5
sg17
g5
sg18
g5
sg19
g5
sg20
g5
sg21
I372205
sg22
g25
sg23
g5
sg24
L138536562025L
sg26
I153686
sg27
g5
sg28
g5
sg29
I372205
ssS'COLWELL WESLEY'
p72
(dp73
g3
I1758
sg4
I27610
sg6
I16514
sg7
I01
sg8
g5
sg9
S'wes.colwell@enron.com'
p74
sg11
I240
sg12
I-144062
sg13
g5
sg14
L83256485764L
sg15
I1132
sg16
g5
sg17
I40
sg18
I101740
sg19
g5
sg20
I1200000
sg21
I698242
sg22
L1440000000000L
sg23
I11
sg24
g25
sg26
I698242
sg27
I288542
sg28
I1490344
sg29
g5
ssS'MULLER MARK S'
p75
(dp76
g3
I136
sg4
I842924
sg6
g5
sg7
I00
sg8
I1725545
sg9
S's..muller@enron.com'
p77
sg11
I12
sg12
I-719000
sg13
g5
sg14
L63329735716L
sg15
I114
sg16
g5
sg17
I16
sg18
I947
sg19
g5
sg20
I1100000
sg21
I1416848
sg22
L1210000000000L
sg23
I0
sg24
L1115811942400L
sg26
I360528
sg27
I251654
sg28
I3202070
sg29
I1056320
ssS'JACKSON CHARLENE R'
p78
(dp79
g3
I258
sg4
g5
sg6
I10181
sg7
I00
sg8
g5
sg9
S'charlene.jackson@enron.com'
p80
sg11
I25
sg12
g5
sg13
g5
sg14
L83265719364L
sg15
I117
sg16
g5
sg17
I56
sg18
I2435
sg19
g5
sg20
I250000
sg21
I725735
sg22
L62500000000L
sg23
I19
sg24
L34248313969L
sg26
I540672
sg27
I288558
sg28
I551174
sg29
I185063
ssS'WESTFAHL RICHARD K'
p81
(dp82
g3
g5
sg4
g5
sg6
I51870
sg7
I00
sg8
I256191
sg9
S'dick.westfahl@enron.com'
p83
sg11
g5
sg12
I-10800
sg13
g5
sg14
L4063297536L
sg15
g5
sg16
g5
sg17
g5
sg18
I401130
sg19
g5
sg20
g5
sg21
I384930
sg22
g25
sg23
g5
sg24
g25
sg26
I384930
sg27
I63744
sg28
I762135
sg29
g5
ssS'WALTERS GARETH W'
p84
(dp85
g3
g5
sg4
I53625
sg6
I33785
sg7
I00
sg8
g5
sg9
g5
sg11
g5
sg12
g5
sg13
g5
sg14
g25
sg15
g5
sg16
g5
sg17
g5
sg18
g5
sg19
g5
sg20
g5
sg21
I1030329
sg22
g25
sg23
g5
sg24
L1061577848241L
sg26
g5
sg27
g5
sg28
I87410
sg29
I1030329
ssS'WALLS JR ROBERT H'
p86
(dp87
g3
I671
sg4
g5
sg6
I50936
sg7
I00
sg8
I540751
sg9
S'rob.walls@enron.com'
p88
sg11
I17
sg12
g5
sg13
g5
sg14
L127513982281L
sg15
I215
sg16
g5
sg17
I146
sg18
I2
sg19
g5
sg20
I850000
sg21
I5898997
sg22
L722500000000L
sg23
I0
sg24
L18892444743936L
sg26
I1552453
sg27
I357091
sg28
I1798780
sg29
I4346544
ssS'KITCHEN LOUISE'
p89
(dp90
g3
I8305
sg4
g5
sg6
I5774
sg7
I00
sg8
g5
sg9
S'louise.kitchen@enron.com'
p91
sg11
I251
sg12
g5
sg13
g5
sg14
L73680759364L
sg15
I3669
sg16
g5
sg17
I1728
sg18
I93925
sg19
g5
sg20
I3100000
sg21
I547143
sg22
L9610000000000L
sg23
I194
sg24
L6567805764L
sg26
I466101
sg27
I271442
sg28
I3471141
sg29
I81042
ssS'CHAN RONNIE'
p92
(dp93
g3
g5
sg4
g5
sg6
g5
sg7
I00
sg8
g5
sg9
g5
sg11
g5
sg12
I-98784
sg13
I-32460
sg14
g25
sg15
g5
sg16
g5
sg17
g5
sg18
g5
sg19
I98784
sg20
g5
sg21
g5
sg22
g25
sg23
g5
sg24
g25
sg26
I32460
sg27
g5
sg28
g5
sg29
g5
ssS'BELFER ROBERT'
p94
(dp95
g3
g5
sg4
I-102500
sg6
g5
sg7
I00
sg8
g5
sg9
g5
sg11
g5
sg12
g5
sg13
I44093
sg14
g25
sg15
g5
sg16
g5
sg17
g5
sg18
g5
sg19
I3285
sg20
g5
sg21
I-44093
sg22
g25
sg23
g5
sg24
I10791225
sg26
g5
sg27
g5
sg28
I102500
sg29
I3285
ssS'SHANKMAN JEFFREY A'
p96
(dp97
g3
I3221
sg4
g5
sg6
I178979
sg7
I00
sg8
I554422
sg9
S'jeffrey.shankman@enron.com'
p98
sg11
I94
sg12
g5
sg13
g5
sg14
L92482892100L
sg15
I1730
sg16
g5
sg17
I2681
sg18
I1191
sg19
g5
sg20
I2000000
sg21
I2072035
sg22
L4000000000000L
sg23
I83
sg24
L2079069842404L
sg26
I630137
sg27
I304110
sg28
I3038702
sg29
I1441898
ssS'WODRASKA JOHN'
p99
(dp100
g3
g5
sg4
g5
sg6
g5
sg7
I00
sg8
g5
sg9
S'john.wodraska@enron.com'
p101
sg11
g5
sg12
g5
sg13
g5
sg14
g25
sg15
g5
sg16
g5
sg17
g5
sg18
I189583
sg19
g5
sg20
g5
sg21
g5
sg22
g25
sg23
g5
sg24
g25
sg26
g5
sg27
g5
sg28
I189583
sg29
g5
ssS'BERGSIEKER RICHARD P'
p102
(dp103
g3
I383
sg4
g5
sg6
I59175
sg7
I00
sg8
I180250
sg9
S'rick.bergsieker@enron.com'
p104
sg11
I4
sg12
I-485813
sg13
g5
sg14
L35314678084L
sg15
I233
sg16
g5
sg17
I59
sg18
I427316
sg19
g5
sg20
I250000
sg21
I659249
sg22
L62500000000L
sg23
I0
sg24
g25
sg26
I659249
sg27
I187922
sg28
I618850
sg29
g5
ssS'URQUHART JOHN A'
p105
(dp106
g3
g5
sg4
g5
sg6
I228656
sg7
I00
sg8
g5
sg9
g5
sg11
g5
sg12
I-36666
sg13
g5
sg14
g25
sg15
g5
sg16
g5
sg17
g5
sg18
g5
sg19
I36666
sg20
g5
sg21
g5
sg22
g25
sg23
g5
sg24
g25
sg26
g5
sg27
g5
sg28
I228656
sg29
g5
ssS'BIBI PHILIPPE A'
p107
(dp108
g3
I1607
sg4
g5
sg6
I38559
sg7
I00
sg8
I369721
sg9
S'philippe.bibi@enron.com'
p109
sg11
I23
sg12
g5
sg13
g5
sg14
L45635640625L
sg15
I1336
sg16
g5
sg17
I40
sg18
I425688
sg19
g5
sg20
I1000000
sg21
I1843816
sg22
L1000000000000L
sg23
I8
sg24
L2148376158756L
sg26
I378082
sg27
I213625
sg28
I2047593
sg29
I1465734
ssS'RIEKER PAULA H'
p110
(dp111
g3
I1328
sg4
I214678
sg6
I33271
sg7
I01
sg8
g5
sg9
S'paula.rieker@enron.com'
p112
sg11
I35
sg12
I-100000
sg13
g5
sg14
L62101138401L
sg15
I1258
sg16
g5
sg17
I82
sg18
I1950
sg19
g5
sg20
I700000
sg21
I1918887
sg22
L490000000000L
sg23
I48
sg24
L2674003316644L
sg26
I283649
sg27
I249201
sg28
I1099100
sg29
I1635238
ssS'WHALEY DAVID A'
p113
(dp114
g3
g5
sg4
g5
sg6
g5
sg7
I00
sg8
g5
sg9
g5
sg11
g5
sg12
g5
sg13
g5
sg14
g25
sg15
g5
sg16
g5
sg17
g5
sg18
g5
sg19
g5
sg20
g5
sg21
I98718
sg22
g25
sg23
g5
sg24
L9745243524L
sg26
g5
sg27
g5
sg28
g5
sg29
I98718
ssS'BECK SALLY W'
p115
(dp116
g3
I7315
sg4
g5
sg6
I37172
sg7
I00
sg8
g5
sg9
S'sally.beck@enron.com'
p117
sg11
I144
sg12
g5
sg13
g5
sg14
L53513568900L
sg15
I2639
sg16
g5
sg17
I4343
sg18
I566
sg19
g5
sg20
I700000
sg21
I126027
sg22
L490000000000L
sg23
I386
sg24
g25
sg26
I126027
sg27
I231330
sg28
I969068
sg29
g5
ssS'HAUG DAVID L'
p118
(dp119
g3
I573
sg4
g5
sg6
I475
sg7
I00
sg8
g5
sg9
S'david.haug@enron.com'
p120
sg11
I4
sg12
g5
sg13
g5
sg14
g25
sg15
I471
sg16
g5
sg17
I19
sg18
g5
sg19
g5
sg20
g5
sg21
I2217299
sg22
g25
sg23
I7
sg24
g25
sg26
I2217299
sg27
g5
sg28
I475
sg29
g5
ssS'ECHOLS JOHN B'
p121
(dp122
g3
g5
sg4
g5
sg6
I21530
sg7
I00
sg8
I2234774
sg9
S'john.echols@enron.com'
p123
sg11
g5
sg12
g5
sg13
g5
sg14
L33213240025L
sg15
g5
sg16
g5
sg17
g5
sg18
I53775
sg19
g5
sg20
I200000
sg21
I1008941
sg22
L40000000000L
sg23
g5
sg24
L361727667844L
sg26
I407503
sg27
I182245
sg28
I2692324
sg29
I601438
ssS'MENDELSOHN JOHN'
p124
(dp125
g3
g5
sg4
g5
sg6
I148
sg7
I00
sg8
g5
sg9
g5
sg11
g5
sg12
I-103750
sg13
g5
sg14
g25
sg15
g5
sg16
g5
sg17
g5
sg18
g5
sg19
I103750
sg20
g5
sg21
g5
sg22
g25
sg23
g5
sg24
g25
sg26
g5
sg27
g5
sg28
I148
sg29
g5
ssS'HICKERSON GARY J'
p126
(dp127
g3
I1320
sg4
g5
sg6
I98849
sg7
I00
sg8
I69223
sg9
S'gary.hickerson@enron.com'
p128
sg11
I40
sg12
g5
sg13
g5
sg14
L44854156944L
sg15
I900
sg16
g5
sg17
I27
sg18
I1936
sg19
g5
sg20
I1700000
sg21
I441096
sg22
L2890000000000L
sg23
I1
sg24
g25
sg26
I441096
sg27
I211788
sg28
I2081796
sg29
g5
ssS'CLINE KENNETH W'
p129
(dp130
g3
g5
sg4
g5
sg6
g5
sg7
I00
sg8
g5
sg9
g5
sg11
g5
sg12
g5
sg13
I-472568
sg14
g25
sg15
g5
sg16
g5
sg17
g5
sg18
g5
sg19
g5
sg20
g5
sg21
I189518
sg22
g25
sg23
g5
sg24
g25
sg26
I662086
sg27
g5
sg28
g5
sg29
g5
ssS'LEWIS RICHARD'
p131
(dp132
g3
I952
sg4
g5
sg6
g5
sg7
I00
sg8
g5
sg9
S'richard.lewis@enron.com'
p133
sg11
I10
sg12
g5
sg13
g5
sg14
g25
sg15
I739
sg16
g5
sg17
I26
sg18
g5
sg19
g5
sg20
g5
sg21
I850477
sg22
g25
sg23
I0
sg24
L723311127529L
sg26
g5
sg27
g5
sg28
g5
sg29
I850477
ssS'HAYES ROBERT E'
p134
(dp135
g3
I504
sg4
I7961
sg6
g5
sg7
I00
sg8
g5
sg9
S'robert.hayes@enron.com'
p136
sg11
I16
sg12
g5
sg13
g5
sg14
g25
sg15
I50
sg16
g5
sg17
I12
sg18
g5
sg19
g5
sg20
g5
sg21
I151418
sg22
g25
sg23
I0
sg24
g25
sg26
I151418
sg27
g5
sg28
I7961
sg29
g5
ssS'KOPPER MICHAEL J'
p137
(dp138
g3
g5
sg4
g5
sg6
I118134
sg7
I01
sg8
I602671
sg9
S'michael.kopper@enron.com'
p139
sg11
g5
sg12
g5
sg13
g5
sg14
L50312733025L
sg15
g5
sg16
g5
sg17
g5
sg18
I907502
sg19
g5
sg20
I800000
sg21
I985032
sg22
L640000000000L
sg23
g5
sg24
g25
sg26
I985032
sg27
I224305
sg28
I2652612
sg29
g5
ssS'LEFF DANIEL P'
p140
(dp141
g3
I2822
sg4
g5
sg6
g5
sg7
I00
sg8
I1387399
sg9
S'dan.leff@enron.com'
p142
sg11
I67
sg12
g5
sg13
g5
sg14
L74936872516L
sg15
I2672
sg16
g5
sg17
I63
sg18
I3083
sg19
g5
sg20
I1000000
sg21
I360528
sg22
L1000000000000L
sg23
I14
sg24
g25
sg26
I360528
sg27
I273746
sg28
I2664228
sg29
g5
ssS'LAVORATO JOHN J'
p143
(dp144
g3
I7259
sg4
g5
sg6
I49537
sg7
I00
sg8
I2035380
sg9
S'john.lavorato@enron.com'
p145
sg11
I528
sg12
g5
sg13
g5
sg14
L115116346944L
sg15
I3962
sg16
g5
sg17
I2585
sg18
I1552
sg19
g5
sg20
I8000000
sg21
I5167144
sg22
L64000000000000L
sg23
I411
sg24
L17297239410025L
sg26
I1008149
sg27
I339288
sg28
I10425757
sg29
I4158995
ssS'BERBERIAN DAVID'
p146
(dp147
g3
g5
sg4
g5
sg6
I11892
sg7
I00
sg8
g5
sg9
S'david.berberian@enron.com'
p148
sg11
g5
sg12
g5
sg13
g5
sg14
L46907762724L
sg15
g5
sg16
g5
sg17
g5
sg18
g5
sg19
g5
sg20
g5
sg21
I2493616
sg22
g25
sg23
g5
sg24
L2638662364816L
sg26
I869220
sg27
I216582
sg28
I228474
sg29
I1624396
ssS'DETMERING TIMOTHY J'
p149
(dp150
g3
g5
sg4
I875307
sg6
I52255
sg7
I00
sg8
I415657
sg9
S'timothy.detmering@enron.com'
p151
sg11
g5
sg12
I-775241
sg13
I-315068
sg14
L44310250000L
sg15
g5
sg16
g5
sg17
g5
sg18
I1105
sg19
g5
sg20
I425000
sg21
I2027865
sg22
L180625000000L
sg23
g5
sg24
L4112236458225L
sg26
I315068
sg27
I210500
sg28
I1204583
sg29
I2027865
ssS'WAKEHAM JOHN'
p152
(dp153
g3
g5
sg4
g5
sg6
I103773
sg7
I00
sg8
g5
sg9
g5
sg11
g5
sg12
g5
sg13
g5
sg14
g25
sg15
g5
sg16
g5
sg17
g5
sg18
g5
sg19
I109298
sg20
g5
sg21
g5
sg22
g25
sg23
g5
sg24
g25
sg26
g5
sg27
g5
sg28
I213071
sg29
g5
ssS'POWERS WILLIAM'
p154
(dp155
g3
I653
sg4
g5
sg6
g5
sg7
I00
sg8
g5
sg9
S'ken.powers@enron.com'
p156
sg11
I0
sg12
I-17500
sg13
g5
sg14
g25
sg15
I12
sg16
g5
sg17
I26
sg18
g5
sg19
I17500
sg20
g5
sg21
g5
sg22
g25
sg23
I0
sg24
g25
sg26
g5
sg27
g5
sg28
g5
sg29
g5
ssS'GOLD JOSEPH'
p157
(dp158
g3
g5
sg4
g5
sg6
g5
sg7
I00
sg8
I304805
sg9
S'joe.gold@enron.com'
p159
sg11
g5
sg12
g5
sg13
g5
sg14
L74463494400L
sg15
g5
sg16
g5
sg17
g5
sg18
I819288
sg19
g5
sg20
I750000
sg21
I877611
sg22
L562500000000L
sg23
g5
sg24
L190545345225L
sg26
I441096
sg27
I272880
sg28
I2146973
sg29
I436515
ssS'BANNANTINE JAMES M'
p160
(dp161
g3
I566
sg4
g5
sg6
I56301
sg7
I00
sg8
g5
sg9
S'james.bannantine@enron.com'
p162
sg11
I39
sg12
I-5104
sg13
I-560222
sg14
I227529
sg15
I465
sg16
g5
sg17
I29
sg18
I864523
sg19
g5
sg20
g5
sg21
I5243487
sg22
g25
sg23
I0
sg24
L16371386468649L
sg26
I1757552
sg27
I477
sg28
I916197
sg29
I4046157
ssS'DUNCAN JOHN H'
p163
(dp164
g3
g5
sg4
g5
sg6
g5
sg7
I00
sg8
g5
sg9
g5
sg11
g5
sg12
I-25000
sg13
g5
sg14
g25
sg15
g5
sg16
g5
sg17
g5
sg18
g5
sg19
I102492
sg20
g5
sg21
I371750
sg22
g25
sg23
g5
sg24
L138198062500L
sg26
g5
sg27
g5
sg28
I77492
sg29
I371750
ssS'SHAPIRO RICHARD S'
p165
(dp166
g3
I15149
sg4
g5
sg6
I137767
sg7
I00
sg8
g5
sg9
S'richard.shapiro@enron.com'
p167
sg11
I74
sg12
g5
sg13
g5
sg14
L72401893776L
sg15
I4527
sg16
g5
sg17
I1215
sg18
I705
sg19
g5
sg20
I650000
sg21
I987001
sg22
L422500000000L
sg23
I65
sg24
L369465818569L
sg26
I379164
sg27
I269076
sg28
I1057548
sg29
I607837
ssS'SHERRIFF JOHN R'
p168
(dp169
g3
I3187
sg4
g5
sg6
g5
sg7
I00
sg8
I554422
sg9
S'john.sherriff@enron.com'
p170
sg11
I28
sg12
g5
sg13
g5
sg14
L183852288400L
sg15
I2103
sg16
g5
sg17
I92
sg18
I1852186
sg19
g5
sg20
I1500000
sg21
I3128982
sg22
L2250000000000L
sg23
I23
sg24
L3369273171364L
sg26
I1293424
sg27
I428780
sg28
I4335388
sg29
I1835558
ssS'SHELBY REX'
p171
(dp172
g3
I225
sg4
g5
sg6
I22884
sg7
I01
sg8
g5
sg9
S'rex.shelby@enron.com'
p173
sg11
I13
sg12
I-4167
sg13
g5
sg14
L44877880336L
sg15
I91
sg16
g5
sg17
I39
sg18
I1573324
sg19
g5
sg20
I200000
sg21
I2493616
sg22
L40000000000L
sg23
I14
sg24
L2638662364816L
sg26
I869220
sg27
I211844
sg28
I2003885
sg29
I1624396
ssS'LEMAISTRE CHARLES'
p174
(dp175
g3
g5
sg4
g5
sg6
g5
sg7
I00
sg8
g5
sg9
g5
sg11
g5
sg12
I-25000
sg13
g5
sg14
g25
sg15
g5
sg16
g5
sg17
g5
sg18
g5
sg19
I112492
sg20
g5
sg21
I412878
sg22
g25
sg23
g5
sg24
L170468242884L
sg26
g5
sg27
g5
sg28
I87492
sg29
I412878
ssS'DEFFNER JOSEPH M'
p176
(dp177
g3
I714
sg4
g5
sg6
I41626
sg7
I00
sg8
I335349
sg9
S'joseph.deffner@enron.com'
p178
sg11
I115
sg12
g5
sg13
g5
sg14
L42485866641L
sg15
I552
sg16
g5
sg17
I74
sg18
I25553
sg19
g5
sg20
I600000
sg21
I159211
sg22
L360000000000L
sg23
I4
sg24
I301994884
sg26
I141833
sg27
I206121
sg28
I1208649
sg29
I17378
ssS'KISHKILL JOSEPH G'
p179
(dp180
g3
g5
sg4
g5
sg6
I116335
sg7
I00
sg8
g5
sg9
S'joe.kishkill@enron.com'
p181
sg11
g5
sg12
I-51042
sg13
g5
sg14
L30361668516L
sg15
g5
sg16
g5
sg17
g5
sg18
I465357
sg19
g5
sg20
g5
sg21
I1034346
sg22
g25
sg23
g5
sg24
g25
sg26
I1034346
sg27
I174246
sg28
I704896
sg29
g5
ssS'WHALLEY LAWRENCE G'
p182
(dp183
g3
I6019
sg4
g5
sg6
I57838
sg7
I00
sg8
I808346
sg9
S'greg.whalley@enron.com'
p184
sg11
I186
sg12
g5
sg13
g5
sg14
L260471412496L
sg15
I3920
sg16
g5
sg17
I556
sg18
I301026
sg19
g5
sg20
I3000000
sg21
I6079137
sg22
L9000000000000L
sg23
I24
sg24
L10777826361600L
sg26
I2796177
sg27
I510364
sg28
I4677574
sg29
I3282960
ssS'PIRO JIM'
p185
(dp186
g3
I58
sg4
g5
sg6
g5
sg7
I00
sg8
g5
sg9
S'jim.piro@enron.com'
p187
sg11
I0
sg12
g5
sg13
g5
sg14
g25
sg15
I3
sg16
g5
sg17
I16
sg18
g5
sg19
g5
sg20
g5
sg21
I47304
sg22
g25
sg23
I1
sg24
g25
sg26
I47304
sg27
g5
sg28
g5
sg29
g5
ssS'MCCONNELL MICHAEL S'
p188
(dp189
g3
I3329
sg4
g5
sg6
I81364
sg7
I00
sg8
I554422
sg9
S'mike.mcconnell@enron.com'
p190
sg11
I92
sg12
g5
sg13
g5
sg14
L133252741444L
sg15
I2189
sg16
g5
sg17
I2742
sg18
I540
sg19
g5
sg20
I1100000
sg21
I3101279
sg22
L1210000000000L
sg23
I194
sg24
L2634161460100L
sg26
I1478269
sg27
I365038
sg28
I2101364
sg29
I1623010
ssS'DELAINEY DAVID W'
p191
(dp192
g3
I3093
sg4
g5
sg6
I86174
sg7
I01
sg8
I1294981
sg9
S'david.delainey@enron.com'
p193
sg11
I66
sg12
g5
sg13
g5
sg14
L133344016569L
sg15
I2097
sg16
g5
sg17
I3069
sg18
I1661
sg19
g5
sg20
I3000000
sg21
I3614261
sg22
L9000000000000L
sg23
I609
sg24
L5249198778769L
sg26
I1323148
sg27
I365163
sg28
I4747979
sg29
I2291113
ssS'SULLIVAN-SHAKLOVITZ COLLEEN'
p194
(dp195
g3
g5
sg4
I181993
sg6
g5
sg7
I00
sg8
I554422
sg9
g5
sg11
g5
sg12
g5
sg13
g5
sg14
L26497002841L
sg15
g5
sg16
g5
sg17
g5
sg18
I162
sg19
g5
sg20
I100000
sg21
I1362375
sg22
L10000000000L
sg23
g5
sg24
L1856065640625L
sg26
g5
sg27
I162779
sg28
I999356
sg29
I1362375
ssS'WROBEL BRUCE'
p196
(dp197
g3
g5
sg4
g5
sg6
g5
sg7
I00
sg8
g5
sg9
g5
sg11
g5
sg12
g5
sg13
g5
sg14
g25
sg15
g5
sg16
g5
sg17
g5
sg18
g5
sg19
g5
sg20
g5
sg21
I139130
sg22
g25
sg23
g5
sg24
L19357156900L
sg26
g5
sg27
g5
sg28
g5
sg29
I139130
ssS'LINDHOLM TOD A'
p198
(dp199
g3
g5
sg4
I204075
sg6
I57727
sg7
I00
sg8
I175000
sg9
S'tod.lindholm@enron.com'
p200
sg11
g5
sg12
g5
sg13
g5
sg14
L55911912849L
sg15
g5
sg16
g5
sg17
g5
sg18
I2630
sg19
g5
sg20
I200000
sg21
I3064208
sg22
L40000000000L
sg23
g5
sg24
L6499241508321L
sg26
I514847
sg27
I236457
sg28
I875889
sg29
I2549361
ssS'MEYER JEROME J'
p201
(dp202
g3
g5
sg4
g5
sg6
I2151
sg7
I00
sg8
g5
sg9
g5
sg11
g5
sg12
I-38346
sg13
g5
sg14
g25
sg15
g5
sg16
g5
sg17
g5
sg18
g5
sg19
I38346
sg20
g5
sg21
g5
sg22
g25
sg23
g5
sg24
g25
sg26
g5
sg27
g5
sg28
I2151
sg29
g5
ssS'LAY KENNETH L'
p203
(dp204
g3
I4273
sg4
I202911
sg6
I99832
sg7
I01
sg8
I3600000
sg9
S'kenneth.lay@enron.com'
p205
sg11
I123
sg12
I-300000
sg13
g5
sg14
L1149872327041L
sg15
I2411
sg16
I81525000
sg17
I36
sg18
I10359729
sg19
g5
sg20
I7000000
sg21
I49110078
sg22
L49000000000000L
sg23
I16
sg24
L1179811483411456L
sg26
I14761694
sg27
I1072321
sg28
I103559793
sg29
I34348384
ssS'BUTTS ROBERT H'
p206
(dp207
g3
g5
sg4
g5
sg6
I9410
sg7
I00
sg8
I175000
sg9
S'bob.butts@enron.com'
p208
sg11
g5
sg12
I-75000
sg13
g5
sg14
L68390618256L
sg15
g5
sg16
g5
sg17
g5
sg18
I150656
sg19
g5
sg20
I750000
sg21
I417619
sg22
L562500000000L
sg23
g5
sg24
g25
sg26
I417619
sg27
I261516
sg28
I1271582
sg29
g5
ssS'OLSON CINDY K'
p209
(dp210
g3
I1184
sg4
I77716
sg6
I63791
sg7
I00
sg8
I100000
sg9
S'cindy.olson@enron.com'
p211
sg11
I20
sg12
g5
sg13
g5
sg14
L108292330084L
sg15
I856
sg16
g5
sg17
I52
sg18
I972
sg19
g5
sg20
I750000
sg21
I2606763
sg22
L562500000000L
sg23
I15
sg24
L2679880317156L
sg26
I969729
sg27
I329078
sg28
I1321557
sg29
I1637034
ssS'MCDONALD REBECCA'
p212
(dp213
g3
I894
sg4
g5
sg6
g5
sg7
I00
sg8
g5
sg9
S'rebecca.mcdonald@enron.com'
p214
sg11
I54
sg12
g5
sg13
g5
sg14
g25
sg15
I720
sg16
g5
sg17
I13
sg18
g5
sg19
g5
sg20
g5
sg21
I1691366
sg22
g25
sg23
I1
sg24
L573504804601L
sg26
I934065
sg27
g5
sg28
g5
sg29
I757301
ssS'CUMBERLAND MICHAEL S'
p215
(dp216
g3
g5
sg4
g5
sg6
I22344
sg7
I00
sg8
I275000
sg9
g5
sg11
g5
sg12
g5
sg13
g5
sg14
L34187640201L
sg15
g5
sg16
g5
sg17
g5
sg18
I713
sg19
g5
sg20
I325000
sg21
I207940
sg22
L105625000000L
sg23
g5
sg24
g25
sg26
I207940
sg27
I184899
sg28
I807956
sg29
g5
ssS'GAHN ROBERT S'
p217
(dp218
g3
g5
sg4
I73122
sg6
I50080
sg7
I00
sg8
g5
sg9
g5
sg11
g5
sg12
I-1042
sg13
g5
sg14
L36867072064L
sg15
g5
sg16
g5
sg17
g5
sg18
I76547
sg19
g5
sg20
I509870
sg21
I318607
sg22
L259967416900L
sg23
g5
sg24
L6928398169L
sg26
I235370
sg27
I192008
sg28
I900585
sg29
I83237
ssS'BADUM JAMES P'
p219
(dp220
g3
g5
sg4
I178980
sg6
I3486
sg7
I00
sg8
g5
sg9
g5
sg11
g5
sg12
g5
sg13
g5
sg14
g25
sg15
g5
sg16
g5
sg17
g5
sg18
g5
sg19
g5
sg20
g5
sg21
I257817
sg22
g25
sg23
g5
sg24
L66469605489L
sg26
g5
sg27
g5
sg28
I182466
sg29
I257817
ssS'HERMANN ROBERT J'
p221
(dp222
g3
g5
sg4
g5
sg6
I48357
sg7
I00
sg8
I150000
sg9
S'robert.hermann@enron.com'
p223
sg11
g5
sg12
I-280000
sg13
g5
sg14
L68991851569L
sg15
g5
sg16
g5
sg17
g5
sg18
I416441
sg19
g5
sg20
I700000
sg21
I668132
sg22
L490000000000L
sg23
g5
sg24
L35156250000L
sg26
I480632
sg27
I262663
sg28
I1297461
sg29
I187500
ssS'FALLON JAMES B'
p224
(dp225
g3
I1755
sg4
g5
sg6
I95924
sg7
I00
sg8
I374347
sg9
S'jim.fallon@enron.com'
p226
sg11
I42
sg12
g5
sg13
g5
sg14
L92773849744L
sg15
I1604
sg16
g5
sg17
I75
sg18
I401481
sg19
g5
sg20
I2500000
sg21
I2332399
sg22
L6250000000000L
sg23
I37
sg24
L884083226049L
sg26
I1392142
sg27
I304588
sg28
I3676340
sg29
I940257
ssS'GATHMANN WILLIAM D'
p227
(dp228
g3
g5
sg4
g5
sg6
g5
sg7
I00
sg8
g5
sg9
g5
sg11
g5
sg12
g5
sg13
I-72419
sg14
g25
sg15
g5
sg16
g5
sg17
g5
sg18
g5
sg19
g5
sg20
g5
sg21
I1945360
sg22
g25
sg23
g5
sg24
L3075695182756L
sg26
I264013
sg27
g5
sg28
g5
sg29
I1753766
ssS'HORTON STANLEY C'
p229
(dp230
g3
I2350
sg4
I3131860
sg6
g5
sg7
I00
sg8
g5
sg9
S'stanley.horton@enron.com'
p231
sg11
I44
sg12
g5
sg13
g5
sg14
g25
sg15
I1074
sg16
g5
sg17
I1073
sg18
g5
sg19
g5
sg20
g5
sg21
I7256648
sg22
g25
sg23
I15
sg24
L27150029303761L
sg26
I2046079
sg27
g5
sg28
I3131860
sg29
I5210569
ssS'BOWEN JR RAYMOND M'
p232
(dp233
g3
I1858
sg4
g5
sg6
I65907
sg7
I01
sg8
I974293
sg9
S'raymond.bowen@enron.com'
p234
sg11
I140
sg12
I-833
sg13
g5
sg14
L77618517201L
sg15
I1593
sg16
g5
sg17
I27
sg18
I1621
sg19
g5
sg20
I1350000
sg21
I252055
sg22
L1822500000000L
sg23
I15
sg24
g25
sg26
I252055
sg27
I278601
sg28
I2669589
sg29
g5
ssS'GILLIS JOHN'
p235
(dp236
g3
g5
sg4
g5
sg6
g5
sg7
I00
sg8
g5
sg9
g5
sg11
g5
sg12
g5
sg13
g5
sg14
g25
sg15
g5
sg16
g5
sg17
g5
sg18
g5
sg19
g5
sg20
g5
sg21
I85641
sg22
g25
sg23
g5
sg24
I96098809
sg26
I75838
sg27
g5
sg28
g5
sg29
I9803
ssS'FITZGERALD JAY L'
p237
(dp238
g3
I936
sg4
g5
sg6
I23870
sg7
I00
sg8
I556416
sg9
S'jay.fitzgerald@enron.com'
p239
sg11
I1
sg12
g5
sg13
g5
sg14
L39663510649L
sg15
I723
sg16
g5
sg17
I16
sg18
I285414
sg19
g5
sg20
I350000
sg21
I1621236
sg22
L122500000000L
sg23
I8
sg24
L441508420521L
sg26
I956775
sg27
I199157
sg28
I1414857
sg29
I664461
ssS'MORAN MICHAEL P'
p240
(dp241
g3
I672
sg4
g5
sg6
g5
sg7
I00
sg8
g5
sg9
S'michael.moran@enron.com'
p242
sg11
I0
sg12
g5
sg13
g5
sg14
g25
sg15
I127
sg16
g5
sg17
I19
sg18
g5
sg19
g5
sg20
g5
sg21
I221141
sg22
g25
sg23
I0
sg24
L3544892521L
sg26
I161602
sg27
g5
sg28
g5
sg29
I59539
ssS'REDMOND BRIAN L'
p243
(dp244
g3
I1671
sg4
g5
sg6
I14689
sg7
I00
sg8
g5
sg9
S'brian.redmond@enron.com'
p245
sg11
I204
sg12
g5
sg13
g5
sg14
L9377985600L
sg15
I1063
sg16
g5
sg17
I221
sg18
g5
sg19
g5
sg20
g5
sg21
I7890324
sg22
g25
sg23
I49
sg24
L56385666703521L
sg26
I381285
sg27
I96840
sg28
I111529
sg29
I7509039
ssS'BAZELIDES PHILIP J'
p246
(dp247
g3
g5
sg4
I684694
sg6
g5
sg7
I00
sg8
I93750
sg9
g5
sg11
g5
sg12
g5
sg13
g5
sg14
L6531549124L
sg15
g5
sg16
g5
sg17
g5
sg18
I874
sg19
g5
sg20
g5
sg21
I1599641
sg22
g25
sg23
g5
sg24
L2558851328881L
sg26
g5
sg27
I80818
sg28
I860136
sg29
I1599641
ssS'BELDEN TIMOTHY N'
p248
(dp249
g3
I7991
sg4
I2144013
sg6
I17355
sg7
I01
sg8
g5
sg9
S'tim.belden@enron.com'
p250
sg11
I228
sg12
I-2334434
sg13
g5
sg14
L45795572001L
sg15
I5521
sg16
g5
sg17
I484
sg18
I210698
sg19
g5
sg20
I5249999
sg21
I1110705
sg22
L27562489500001L
sg23
I108
sg24
L908468234496L
sg26
I157569
sg27
I213999
sg28
I5501630
sg29
I953136
ssS'DIMICHELE RICHARD G'
p251
(dp252
g3
g5
sg4
g5
sg6
I35812
sg7
I00
sg8
I694862
sg9
S'richard.dimichele@enron.com'
p253
sg11
g5
sg12
g5
sg13
g5
sg14
L69057532944L
sg15
g5
sg16
g5
sg17
g5
sg18
I374689
sg19
g5
sg20
I1000000
sg21
I8317782
sg22
L1000000000000L
sg23
g5
sg24
L67104849980025L
sg26
I126027
sg27
I262788
sg28
I2368151
sg29
I8191755
ssS'DURAN WILLIAM D'
p254
(dp255
g3
I904
sg4
g5
sg6
I25785
sg7
I00
sg8
I1105218
sg9
S'w.duran@enron.com'
p256
sg11
I106
sg12
g5
sg13
g5
sg14
L44391118864L
sg15
I599
sg16
g5
sg17
I12
sg18
I1568
sg19
g5
sg20
I750000
sg21
I1640910
sg22
L562500000000L
sg23
I3
sg24
L2107923593161L
sg26
I189041
sg27
I210692
sg28
I2093263
sg29
I1451869
ssS'THORN TERENCE H'
p257
(dp258
g3
I266
sg4
I16586
sg6
I46145
sg7
I00
sg8
I200000
sg9
S'terence.thorn@enron.com'
p259
sg11
I0
sg12
g5
sg13
g5
sg14
L49325300649L
sg15
I73
sg16
g5
sg17
I41
sg18
I426629
sg19
g5
sg20
g5
sg21
I4817796
sg22
g25
sg23
I0
sg24
L19824542530576L
sg26
I365320
sg27
I222093
sg28
I911453
sg29
I4452476
ssS'FASTOW ANDREW S'
p260
(dp261
g3
g5
sg4
g5
sg6
I55921
sg7
I01
sg8
I1736055
sg9
S'andrew.fastow@enron.com'
p262
sg11
g5
sg12
I-1386055
sg13
g5
sg14
L194214727204L
sg15
g5
sg16
g5
sg17
g5
sg18
I277464
sg19
g5
sg20
I1300000
sg21
I1794412
sg22
L1690000000000L
sg23
g5
sg24
g25
sg26
I1794412
sg27
I440698
sg28
I2424083
sg29
g5
ssS'FOY JOE'
p263
(dp264
g3
I57
sg4
I181755
sg6
g5
sg7
I00
sg8
g5
sg9
S'tracy.foy@enron.com'
p265
sg11
I0
sg12
g5
sg13
g5
sg14
g25
sg15
I2
sg16
g5
sg17
I13
sg18
g5
sg19
g5
sg20
g5
sg21
I343434
sg22
g25
sg23
I0
sg24
L117946912356L
sg26
g5
sg27
g5
sg28
I181755
sg29
I343434
ssS'CALGER CHRISTOPHER F'
p266
(dp267
g3
I2598
sg4
g5
sg6
I35818
sg7
I01
sg8
I375304
sg9
S'christopher.calger@enron.com'
p268
sg11
I199
sg12
I-262500
sg13
g5
sg14
L57690755721L
sg15
I2188
sg16
g5
sg17
I144
sg18
I486
sg19
g5
sg20
I1250000
sg21
I126027
sg22
L1562500000000L
sg23
I25
sg24
g25
sg26
I126027
sg27
I240189
sg28
I1639297
sg29
g5
ssS'RICE KENNETH D'
p269
(dp270
g3
I905
sg4
g5
sg6
I46950
sg7
I01
sg8
I1617011
sg9
S'ken.rice@enron.com'
p271
sg11
I42
sg12
I-3504386
sg13
g5
sg14
L176934644496L
sg15
I864
sg16
g5
sg17
I18
sg18
I174839
sg19
g5
sg20
I1750000
sg21
I22542539
sg22
L3062500000000L
sg23
I4
sg24
L391809363930625L
sg26
I2748364
sg27
I420636
sg28
I505050
sg29
I19794175
ssS'KAMINSKI WINCENTY J'
p272
(dp273
g3
I4607
sg4
g5
sg6
I83585
sg7
I00
sg8
I323466
sg9
S'vince.kaminski@enron.com'
p274
sg11
I41
sg12
g5
sg13
g5
sg14
L75680560201L
sg15
I583
sg16
g5
sg17
I14368
sg18
I4669
sg19
g5
sg20
I400000
sg21
I976037
sg22
L160000000000L
sg23
I171
sg24
L722517000100L
sg26
I126027
sg27
I275101
sg28
I1086821
sg29
I850010
ssS'LOCKHART EUGENE E'
p275
(dp276
g3
g5
sg4
g5
sg6
g5
sg7
I00
sg8
g5
sg9
g5
sg11
g5
sg12
g5
sg13
g5
sg14
g25
sg15
g5
sg16
g5
sg17
g5
sg18
g5
sg19
g5
sg20
g5
sg21
g5
sg22
g25
sg23
g5
sg24
g25
sg26
g5
sg27
g5
sg28
g5
sg29
g5
ssS'COX DAVID'
p277
(dp278
g3
I102
sg4
g5
sg6
I27861
sg7
I00
sg8
g5
sg9
S'chip.cox@enron.com'
p279
sg11
I0
sg12
I-41250
sg13
g5
sg14
L98776946944L
sg15
I71
sg16
g5
sg17
I33
sg18
I494
sg19
g5
sg20
I800000
sg21
I495633
sg22
L640000000000L
sg23
I4
sg24
L13818237601L
sg26
I378082
sg27
I314288
sg28
I1101393
sg29
I117551
ssS'OVERDYKE JR JERE C'
p280
(dp281
g3
g5
sg4
g5
sg6
I18834
sg7
I00
sg8
I135836
sg9
S'jere.overdyke@enron.com'
p282
sg11
g5
sg12
g5
sg13
g5
sg14
L9013793481L
sg15
g5
sg16
g5
sg17
g5
sg18
I176
sg19
g5
sg20
g5
sg21
I7307594
sg22
g25
sg23
g5
sg24
L27736843830084L
sg26
I2041016
sg27
I94941
sg28
I249787
sg29
I5266578
ssS'PEREIRA PAULO V. FERRAZ'
p283
(dp284
g3
g5
sg4
g5
sg6
I27942
sg7
I00
sg8
g5
sg9
g5
sg11
g5
sg12
I-101250
sg13
g5
sg14
g25
sg15
g5
sg16
g5
sg17
g5
sg18
g5
sg19
I101250
sg20
g5
sg21
g5
sg22
g25
sg23
g5
sg24
g25
sg26
g5
sg27
g5
sg28
I27942
sg29
g5
ssS'STABLER FRANK'
p285
(dp286
g3
g5
sg4
g5
sg6
I16514
sg7
I00
sg8
g5
sg9
S'frank.stabler@enron.com'
p287
sg11
g5
sg12
g5
sg13
g5
sg14
L57361208004L
sg15
g5
sg16
g5
sg17
g5
sg18
I356071
sg19
g5
sg20
I500000
sg21
I511734
sg22
L250000000000L
sg23
g5
sg24
g25
sg26
I511734
sg27
I239502
sg28
I1112087
sg29
g5
ssS'SKILLING JEFFREY K'
p288
(dp289
g3
I3627
sg4
g5
sg6
I29336
sg7
I01
sg8
I1920000
sg9
S'jeff.skilling@enron.com'
p290
sg11
I88
sg12
g5
sg13
g5
sg14
L1234894342564L
sg15
I2042
sg16
g5
sg17
I108
sg18
I22122
sg19
g5
sg20
I5600000
sg21
I26093672
sg22
L31360000000000L
sg23
I30
sg24
L370562500000000L
sg26
I6843672
sg27
I1111258
sg28
I8682716
sg29
I19250000
ssS'BLAKE JR. NORMAN P'
p291
(dp292
g3
g5
sg4
g5
sg6
I1279
sg7
I00
sg8
g5
sg9
g5
sg11
g5
sg12
I-113784
sg13
g5
sg14
g25
sg15
g5
sg16
g5
sg17
g5
sg18
g5
sg19
I113784
sg20
g5
sg21
g5
sg22
g25
sg23
g5
sg24
g25
sg26
g5
sg27
g5
sg28
I1279
sg29
g5
ssS'SHERRICK JEFFREY B'
p293
(dp294
g3
I613
sg4
g5
sg6
g5
sg7
I00
sg8
g5
sg9
S'jeffrey.sherrick@enron.com'
p295
sg11
I39
sg12
g5
sg13
g5
sg14
g25
sg15
I583
sg16
g5
sg17
I25
sg18
g5
sg19
g5
sg20
g5
sg21
I1832468
sg22
g25
sg23
I18
sg24
L2034813807961L
sg26
I405999
sg27
g5
sg28
g5
sg29
I1426469
ssS'PRENTICE JAMES'
p296
(dp297
g3
g5
sg4
I564348
sg6
g5
sg7
I00
sg8
g5
sg9
S'james.prentice@enron.com'
p298
sg11
g5
sg12
g5
sg13
g5
sg14
g25
sg15
g5
sg16
g5
sg17
g5
sg18
g5
sg19
g5
sg20
g5
sg21
I1095040
sg22
g25
sg23
g5
sg24
L785405385361L
sg26
I208809
sg27
g5
sg28
I564348
sg29
I886231
ssS'GRAY RODNEY'
p299
(dp300
g3
g5
sg4
I93585
sg6
g5
sg7
I00
sg8
I365625
sg9
g5
sg11
g5
sg12
g5
sg13
g5
sg14
I43758225
sg15
g5
sg16
g5
sg17
g5
sg18
I680833
sg19
g5
sg20
g5
sg21
g5
sg22
g25
sg23
g5
sg24
g25
sg26
g5
sg27
I6615
sg28
I1146658
sg29
g5
ssS'THE TRAVEL AGENCY IN THE PARK'
p301
(dp302
g3
g5
sg4
g5
sg6
g5
sg7
I00
sg8
g5
sg9
g5
sg11
g5
sg12
g5
sg13
g5
sg14
g25
sg15
g5
sg16
g5
sg17
g5
sg18
I362096
sg19
g5
sg20
g5
sg21
g5
sg22
g25
sg23
g5
sg24
g25
sg26
g5
sg27
g5
sg28
I362096
sg29
g5
ssS'UMANOFF ADAM S'
p303
(dp304
g3
I111
sg4
g5
sg6
I53122
sg7
I00
sg8
g5
sg9
S'adam.umanoff@enron.com'
p305
sg11
I12
sg12
g5
sg13
g5
sg14
L83283610921L
sg15
I41
sg16
g5
sg17
I18
sg18
g5
sg19
g5
sg20
I788750
sg21
g5
sg22
L622126562500L
sg23
I0
sg24
g25
sg26
g5
sg27
I288589
sg28
I1130461
sg29
g5
ssS'KEAN STEVEN J'
p306
(dp307
g3
I12754
sg4
g5
sg6
I41953
sg7
I00
sg8
I300000
sg9
S'steven.kean@enron.com'
p308
sg11
I140
sg12
g5
sg13
g5
sg14
L163489218244L
sg15
I3639
sg16
g5
sg17
I6759
sg18
I1231
sg19
g5
sg20
I1000000
sg21
I6153642
sg22
L1000000000000L
sg23
I387
sg24
L4088678114304L
sg26
I4131594
sg27
I404338
sg28
I1747522
sg29
I2022048
ssS'FOWLER PEGGY'
p309
(dp310
g3
I517
sg4
g5
sg6
g5
sg7
I00
sg8
g5
sg9
S'kulvinder.fowler@enron.com'
p311
sg11
I0
sg12
g5
sg13
g5
sg14
g25
sg15
I10
sg16
g5
sg17
I36
sg18
g5
sg19
g5
sg20
g5
sg21
I1884748
sg22
g25
sg23
I0
sg24
L1754506878084L
sg26
I560170
sg27
g5
sg28
g5
sg29
I1324578
ssS'WASAFF GEORGE'
p312
(dp313
g3
I400
sg4
I831299
sg6
g5
sg7
I00
sg8
I200000
sg9
S'george.wasaff@enron.com'
p314
sg11
I22
sg12
I-583325
sg13
g5
sg14
L67597920016L
sg15
I337
sg16
g5
sg17
I30
sg18
I1425
sg19
g5
sg20
I325000
sg21
I2056427
sg22
L105625000000L
sg23
I7
sg24
L2783091427600L
sg26
I388167
sg27
I259996
sg28
I1034395
sg29
I1668260
ssS'WHITE JR THOMAS E'
p315
(dp316
g3
g5
sg4
g5
sg6
I81353
sg7
I00
sg8
g5
sg9
S'thomas.white@enron.com'
p317
sg11
g5
sg12
g5
sg13
g5
sg14
L100833556849L
sg15
g5
sg16
g5
sg17
g5
sg18
I1085463
sg19
g5
sg20
I450000
sg21
I15144123
sg22
L202500000000L
sg23
g5
sg24
L1682336108401L
sg26
I13847074
sg27
I317543
sg28
I1934359
sg29
I1297049
ssS'CHRISTODOULOU DIOMEDES'
p318
(dp319
g3
g5
sg4
g5
sg6
g5
sg7
I00
sg8
g5
sg9
S'diomedes.christodoulou@enron.com'
p320
sg11
g5
sg12
g5
sg13
g5
sg14
g25
sg15
g5
sg16
g5
sg17
g5
sg18
g5
sg19
g5
sg20
g5
sg21
I6077885
sg22
g25
sg23
g5
sg24
L26287718394025L
sg26
I950730
sg27
g5
sg28
g5
sg29
I5127155
ssS'ALLEN PHILLIP K'
p321
(dp322
g3
I2902
sg4
I2869717
sg6
I13868
sg7
I00
sg8
I304805
sg9
S'phillip.allen@enron.com'
p323
sg11
I47
sg12
I-3081055
sg13
I-126027
sg14
L40785822025L
sg15
I1407
sg16
g5
sg17
I2195
sg18
I152
sg19
g5
sg20
I4175000
sg21
I1729541
sg22
L17430625000000L
sg23
I65
sg24
L2991312070681L
sg26
I126027
sg27
I201955
sg28
I4484442
sg29
I1729541
ssS'SHARP VICTORIA T'
p324
(dp325
g3
I3136
sg4
I187469
sg6
I116337
sg7
I00
sg8
I422158
sg9
S'vicki.sharp@enron.com'
p326
sg11
I24
sg12
g5
sg13
g5
sg14
L61576437316L
sg15
I2477
sg16
g5
sg17
I136
sg18
I2401
sg19
g5
sg20
I600000
sg21
I494136
sg22
L360000000000L
sg23
I6
sg24
L79002031329L
sg26
I213063
sg27
I248146
sg28
I1576511
sg29
I281073
ssS'JAEDICKE ROBERT'
p327
(dp328
g3
g5
sg4
g5
sg6
g5
sg7
I00
sg8
g5
sg9
g5
sg11
g5
sg12
I-25000
sg13
I-44093
sg14
g25
sg15
g5
sg16
g5
sg17
g5
sg18
g5
sg19
I108750
sg20
g5
sg21
I431750
sg22
g25
sg23
g5
sg24
L186408062500L
sg26
I44093
sg27
g5
sg28
I83750
sg29
I431750
ssS'WINOKUR JR. HERBERT S'
p329
(dp330
g3
g5
sg4
g5
sg6
I1413
sg7
I00
sg8
g5
sg9
g5
sg11
g5
sg12
I-25000
sg13
g5
sg14
g25
sg15
g5
sg16
g5
sg17
g5
sg18
g5
sg19
I108579
sg20
g5
sg21
g5
sg22
g25
sg23
g5
sg24
g25
sg26
g5
sg27
g5
sg28
I84992
sg29
g5
ssS'BROWN MICHAEL'
p331
(dp332
g3
I1486
sg4
g5
sg6
I49288
sg7
I00
sg8
g5
sg9
S'michael.brown@enron.com'
p333
sg11
I13
sg12
g5
sg13
g5
sg14
g25
sg15
I761
sg16
g5
sg17
I41
sg18
g5
sg19
g5
sg20
g5
sg21
g5
sg22
g25
sg23
I1
sg24
g25
sg26
g5
sg27
g5
sg28
I49288
sg29
g5
ssS'MCCLELLAN GEORGE'
p334
(dp335
g3
I1744
sg4
g5
sg6
I228763
sg7
I00
sg8
g5
sg9
S'george.mcclellan@enron.com'
p336
sg11
I52
sg12
I-125000
sg13
g5
sg14
L69386408569L
sg15
I1469
sg16
g5
sg17
I49
sg18
I51587
sg19
g5
sg20
I900000
sg21
I947861
sg22
L810000000000L
sg23
I0
sg24
L256810765225L
sg26
I441096
sg27
I263413
sg28
I1318763
sg29
I506765
ssS'HUGHES JAMES A'
p337
(dp338
g3
I719
sg4
g5
sg6
g5
sg7
I00
sg8
g5
sg9
S'james.hughes@enron.com'
p339
sg11
I35
sg12
g5
sg13
g5
sg14
g25
sg15
I589
sg16
g5
sg17
I34
sg18
g5
sg19
g5
sg20
g5
sg21
I1118394
sg22
g25
sg23
I5
sg24
L569973661156L
sg26
I363428
sg27
g5
sg28
g5
sg29
I754966
ssS'REYNOLDS LAWRENCE'
p340
(dp341
g3
g5
sg4
I51365
sg6
I8409
sg7
I00
sg8
I156250
sg9
g5
sg11
g5
sg12
I-200000
sg13
I-140264
sg14
L5836807201L
sg15
g5
sg16
g5
sg17
g5
sg18
I202052
sg19
g5
sg20
I100000
sg21
I4221891
sg22
L10000000000L
sg23
g5
sg24
L17311191491584L
sg26
I201483
sg27
I76399
sg28
I394475
sg29
I4160672
ssS'PICKERING MARK R'
p342
(dp343
g3
I898
sg4
g5
sg6
I31653
sg7
I00
sg8
g5
sg9
S'mark.pickering@enron.com'
p344
sg11
I7
sg12
g5
sg13
g5
sg14
L429073471369L
sg15
I728
sg16
I400000
sg17
I67
sg18
g5
sg19
g5
sg20
I300000
sg21
I28798
sg22
L90000000000L
sg23
I0
sg24
I829324804
sg26
g5
sg27
I655037
sg28
I1386690
sg29
I28798
ssS'BHATNAGAR SANJAY'
p345
(dp346
g3
I523
sg4
g5
sg6
g5
sg7
I00
sg8
g5
sg9
S'sanjay.bhatnagar@enron.com'
p347
sg11
I0
sg12
g5
sg13
I15456290
sg14
g25
sg15
I463
sg16
g5
sg17
I29
sg18
I137864
sg19
I137864
sg20
g5
sS'total_stock_value'
p348
S'NaN'
p349
sg22
g25
sg23
I1
sg24
L6783368160100L
sg26
I-2604490
sg27
g5
sg28
I15456290
sg29
I2604490
ssS'CARTER REBECCA C'
p350
(dp351
g3
I312
sg4
g5
sg6
g5
sg7
I00
sg8
I75000
sg9
S'rebecca.carter@enron.com'
p352
sg11
I29
sg12
I-159792
sg13
I-307301
sg14
L68543952481L
sg15
I196
sg16
g5
sg17
I15
sg18
I540
sg19
g5
sg20
I300000
sg21
g5
sg22
L90000000000L
sg23
I7
sg24
g25
sg26
I307301
sg27
I261809
sg28
I477557
sg29
g5
ssS'BUCHANAN HAROLD G'
p353
(dp354
g3
I1088
sg4
g5
sg6
I600
sg7
I00
sg8
I304805
sg9
S'john.buchanan@enron.com'
p355
sg11
I0
sg12
g5
sg13
g5
sg14
L61512432289L
sg15
I23
sg16
g5
sg17
I125
sg18
I1215
sg19
g5
sg20
I500000
sg21
I1014505
sg22
L250000000000L
sg23
I0
sg24
L681390815296L
sg26
I189041
sg27
I248017
sg28
I1054637
sg29
I825464
ssS'YEAP SOON'
p356
(dp357
g3
g5
sg4
g5
sg6
I55097
sg7
I00
sg8
g5
sg9
g5
sg11
g5
sg12
g5
sg13
g5
sg14
g25
sg15
g5
sg16
g5
sg17
g5
sg18
g5
sg19
g5
sg20
g5
sg21
I192758
sg22
g25
sg23
g5
sg24
L37155646564L
sg26
g5
sg27
g5
sg28
I55097
sg29
I192758
ssS'MURRAY JULIA H'
p358
(dp359
g3
I2192
sg4
g5
sg6
I57580
sg7
I00
sg8
I125000
sg9
S'julia.murray@enron.com'
p360
sg11
I11
sg12
g5
sg13
g5
sg14
L52571152656L
sg15
I395
sg16
g5
sg17
I45
sg18
I330
sg19
g5
sg20
I400000
sg21
I597461
sg22
L160000000000L
sg23
I2
sg24
L160382628484L
sg26
I196983
sg27
I229284
sg28
I812194
sg29
I400478
ssS'GARLAND C KEVIN'
p361
(dp362
g3
I209
sg4
g5
sg6
I48405
sg7
I00
sg8
I375304
sg9
S'kevin.garland@enron.com'
p363
sg11
I10
sg12
g5
sg13
g5
sg14
L53798946916L
sg15
I178
sg16
g5
sg17
I44
sg18
I60814
sg19
g5
sg20
I850000
sg21
I896153
sg22
L722500000000L
sg23
I27
sg24
L404808972516L
sg26
I259907
sg27
I231946
sg28
I1566469
sg29
I636246
ssS'DODSON KEITH'
p364
(dp365
g3
I176
sg4
g5
sg6
I28164
sg7
I00
sg8
g5
sg9
S'keith.dodson@enron.com'
p366
sg11
I10
sg12
g5
sg13
g5
sg14
L48842326009L
sg15
I114
sg16
g5
sg17
I14
sg18
I774
sg19
g5
sg20
I70000
sg21
g5
sg22
L4900000000L
sg23
I3
sg24
g25
sg26
g5
sg27
I221003
sg28
I319941
sg29
g5
ssS'YEAGER F SCOTT'
p367
(dp368
g3
g5
sg4
g5
sg6
I53947
sg7
I01
sg8
g5
sg9
S'scott.yeager@enron.com'
p369
sg11
g5
sg12
g5
sg13
g5
sg14
L25091510409L
sg15
g5
sg16
g5
sg17
g5
sg18
I147950
sg19
g5
sg20
g5
sg21
I11884758
sg22
g25
sg23
g5
sg24
L69032036336704L
sg26
I3576206
sg27
I158403
sg28
I360300
sg29
I8308552
ssS'HIRKO JOSEPH'
p370
(dp371
g3
g5
sg4
I10259
sg6
I77978
sg7
I01
sg8
g5
sg9
S'joe.hirko@enron.com'
p372
sg11
g5
sg12
g5
sg13
g5
sg14
g25
sg15
g5
sg16
g5
sg17
g5
sg18
I2856
sg19
g5
sg20
g5
sg21
I30766064
sg22
g25
sg23
g5
sg24
L946550694052096L
sg26
g5
sg27
g5
sg28
I91093
sg29
I30766064
ssS'DIETRICH JANET R'
p373
(dp374
g3
I2572
sg4
g5
sg6
I3475
sg7
I00
sg8
I556416
sg9
S'janet.dietrich@enron.com'
p375
sg11
I305
sg12
g5
sg13
g5
sg14
L62550010000L
sg15
I1902
sg16
g5
sg17
I63
sg18
I473
sg19
g5
sg20
I600000
sg21
I1865087
sg22
L360000000000L
sg23
I14
sg24
L2402558900361L
sg26
I315068
sg27
I250100
sg28
I1410464
sg29
I1550019
ssS'DERRICK JR. JAMES V'
p376
(dp377
g3
I2181
sg4
g5
sg6
I51124
sg7
I00
sg8
I484000
sg9
S'james.derrick@enron.com'
p378
sg11
I64
sg12
I-1284000
sg13
I-1787380
sg14
L242433140625L
sg15
I1401
sg16
g5
sg17
I909
sg18
I7482
sg19
g5
sg20
I800000
sg21
I8831913
sg22
L640000000000L
sg23
I20
sg24
L78002687239569L
sg26
I1787380
sg27
I492375
sg28
I550981
sg29
I8831913
ssS'FREVERT MARK A'
p379
(dp380
g3
I3275
sg4
I6426990
sg6
I86987
sg7
I00
sg8
I1617011
sg9
S'mark.frevert@enron.com'
p381
sg11
I242
sg12
I-3367011
sg13
g5
sg14
L1125576708624L
sg15
I2979
sg16
I2000000
sg17
I21
sg18
I7427621
sg19
g5
sg20
I2000000
sg21
I14622185
sg22
L4000000000000L
sg23
I6
sg24
L108858297856324L
sg26
I4188667
sg27
I1060932
sg28
I17252530
sg29
I10433518
ssS'PAI LOU L'
p382
(dp383
g3
g5
sg4
g5
sg6
I32047
sg7
I00
sg8
g5
sg9
S'lou.pai@enron.com'
p384
sg11
g5
sg12
g5
sg13
g5
sg14
L68580610641L
sg15
g5
sg16
g5
sg17
g5
sg18
I1829457
sg19
g5
sg20
I1000000
sg21
I23817930
sg22
L1000000000000L
sg23
g5
sg24
L236057627603889L
sg26
I8453763
sg27
I261879
sg28
I3123383
sg29
I15364167
ssS'HAYSLETT RODERICK J'
p385
(dp386
g3
I2649
sg4
g5
sg6
g5
sg7
I00
sg8
g5
sg9
S'rod.hayslett@enron.com'
p387
sg11
I35
sg12
g5
sg13
g5
sg14
g25
sg15
I571
sg16
g5
sg17
I1061
sg18
g5
sg19
g5
sg20
g5
sg21
I346663
sg22
g25
sg23
I38
sg24
g25
sg26
I346663
sg27
g5
sg28
g5
sg29
g5
ssS'BAY FRANKLIN R'
p388
(dp389
g3
g5
sg4
I260455
sg6
I129142
sg7
I00
sg8
g5
sg9
S'frank.bay@enron.com'
p390
sg11
g5
sg12
I-201641
sg13
I-82782
sg14
L57442188241L
sg15
g5
sg16
g5
sg17
g5
sg18
I69
sg19
g5
sg20
I400000
sg21
I63014
sg22
L160000000000L
sg23
g5
sg24
g25
sg26
I145796
sg27
I239671
sg28
I827696
sg29
g5
ssS'MCCARTY DANNY J'
p391
(dp392
g3
I1433
sg4
g5
sg6
g5
sg7
I00
sg8
g5
sg9
S'danny.mccarty@enron.com'
p393
sg11
I25
sg12
g5
sg13
g5
sg14
g25
sg15
I508
sg16
g5
sg17
I215
sg18
g5
sg19
g5
sg20
g5
sg21
I758931
sg22
g25
sg23
I2
sg24
L441394140625L
sg26
I94556
sg27
g5
sg28
g5
sg29
I664375
ssS'FUGH JOHN L'
p394
(dp395
g3
g5
sg4
I50591
sg6
g5
sg7
I00
sg8
g5
sg9
g5
sg11
g5
sg12
g5
sg13
g5
sg14
g25
sg15
g5
sg16
g5
sg17
g5
sg18
g5
sg19
g5
sg20
g5
sg21
I176378
sg22
g25
sg23
g5
sg24
L31109198884L
sg26
g5
sg27
g5
sg28
I50591
sg29
I176378
ssS'SCRIMSHAW MATTHEW'
p396
(dp397
g3
g5
sg4
g5
sg6
g5
sg7
I00
sg8
g5
sg9
S'matthew.scrimshaw@enron.com'
p398
sg11
g5
sg12
g5
sg13
g5
sg14
g25
sg15
g5
sg16
g5
sg17
g5
sg18
g5
sg19
g5
sg20
g5
sg21
I759557
sg22
g25
sg23
g5
sg24
L576926836249L
sg26
g5
sg27
g5
sg28
g5
sg29
I759557
ssS'KOENIG MARK E'
p399
(dp400
g3
I2374
sg4
g5
sg6
I127017
sg7
I01
sg8
I300000
sg9
S'mark.koenig@enron.com'
p401
sg11
I53
sg12
g5
sg13
g5
sg14
L96066522916L
sg15
I2271
sg16
g5
sg17
I61
sg18
I150458
sg19
g5
sg20
I700000
sg21
I1920055
sg22
L490000000000L
sg23
I15
sg24
L451230597169L
sg26
I1248318
sg27
I309946
sg28
I1587421
sg29
I671737
ssS'SAVAGE FRANK'
p402
(dp403
g3
g5
sg4
g5
sg6
g5
sg7
I00
sg8
g5
sg9
g5
sg11
g5
sg12
I-121284
sg13
g5
sg14
g25
sg15
g5
sg16
g5
sg17
g5
sg18
g5
sg19
I125034
sg20
g5
sg21
g5
sg22
g25
sg23
g5
sg24
g25
sg26
g5
sg27
g5
sg28
I3750
sg29
g5
ssS'IZZO LAWRENCE L'
p404
(dp405
g3
I496
sg4
g5
sg6
I28093
sg7
I00
sg8
I312500
sg9
S'larry.izzo@enron.com'
p406
sg11
I28
sg12
g5
sg13
g5
sg14
L7271655076L
sg15
I437
sg16
g5
sg17
I19
sg18
I1553729
sg19
g5
sg20
g5
sg21
I5819980
sg22
g25
sg23
I5
sg24
L4687969789584L
sg26
I3654808
sg27
I85274
sg28
I1979596
sg29
I2165172
ssS'TILNEY ELIZABETH A'
p407
(dp408
g3
I460
sg4
g5
sg6
g5
sg7
I00
sg8
I275000
sg9
S'elizabeth.tilney@enron.com'
p409
sg11
I10
sg12
I-575000
sg13
g5
sg14
L61176086244L
sg15
I379
sg16
g5
sg17
I19
sg18
I152055
sg19
g5
sg20
I300000
sg21
I1168042
sg22
L90000000000L
sg23
I11
sg24
L349576562500L
sg26
I576792
sg27
I247338
sg28
I399393
sg29
I591250
ssS'MARTIN AMANDA K'
p410
(dp411
g3
I1522
sg4
I85430
sg6
I8211
sg7
I00
sg8
I5145434
sg9
S'a..martin@enron.com'
p412
sg11
I8
sg12
g5
sg13
g5
sg14
L122141163169L
sg15
I477
sg16
g5
sg17
I230
sg18
I2818454
sg19
g5
sg20
g5
sg21
I2070306
sg22
g25
sg23
I0
sg24
L4286166933636L
sg26
g5
sg27
I349487
sg28
I8407016
sg29
I2070306
ssS'BUY RICHARD B'
p413
(dp414
g3
I3523
sg4
I649584
sg6
g5
sg7
I00
sg8
I769862
sg9
S'rick.buy@enron.com'
p415
sg11
I156
sg12
I-694862
sg13
g5
sg14
L109260658116L
sg15
I2333
sg16
g5
sg17
I1053
sg18
I400572
sg19
g5
sg20
I900000
sg21
I3444470
sg22
L810000000000L
sg23
I71
sg24
L6465897952969L
sg26
I901657
sg27
I330546
sg28
I2355702
sg29
I2542813
ssS'GRAMM WENDY L'
p416
(dp417
g3
g5
sg4
g5
sg6
g5
sg7
I00
sg8
g5
sg9
g5
sg11
g5
sg12
g5
sg13
g5
sg14
g25
sg15
g5
sg16
g5
sg17
g5
sg18
g5
sg19
I119292
sg20
g5
sg21
g5
sg22
g25
sg23
g5
sg24
g25
sg26
g5
sg27
g5
sg28
I119292
sg29
g5
ssS'CAUSEY RICHARD A'
p418
(dp419
g3
I1892
sg4
g5
sg6
I30674
sg7
I01
sg8
I350000
sg9
S'richard.causey@enron.com'
p420
sg11
I58
sg12
I-235000
sg13
g5
sg14
L172381905721L
sg15
I1585
sg16
g5
sg17
I49
sg18
I307895
sg19
g5
sg20
I1000000
sg21
I2502063
sg22
L1000000000000L
sg23
I12
sg24
g25
sg26
I2502063
sg27
I415189
sg28
I1868758
sg29
g5
ssS'TAYLOR MITCHELL S'
p421
(dp422
g3
I533
sg4
I227449
sg6
g5
sg7
I00
sg8
g5
sg9
S'mitchell.taylor@enron.com'
p423
sg11
I0
sg12
g5
sg13
g5
sg14
L70338465796L
sg15
I300
sg16
g5
sg17
I29
sg18
g5
sg19
g5
sg20
I600000
sg21
I3745048
sg22
L360000000000L
sg23
I0
sg24
L10120351562500L
sg26
I563798
sg27
I265214
sg28
I1092663
sg29
I3181250
ssS'DONAHUE JR JEFFREY M'
p424
(dp425
g3
I865
sg4
g5
sg6
I96268
sg7
I00
sg8
g5
sg9
S'jeff.donahue@enron.com'
p426
sg11
I188
sg12
I-300000
sg13
g5
sg14
L77618517201L
sg15
I772
sg16
g5
sg17
I22
sg18
I891
sg19
g5
sg20
I800000
sg21
I1080988
sg22
L640000000000L
sg23
I11
sg24
L586633446400L
sg26
I315068
sg27
I278601
sg28
I875760
sg29
I765920
ssS'GLISAN JR BEN F'
p427
(dp428
g3
I873
sg4
g5
sg6
I125978
sg7
I01
sg8
I71023
sg9
S'ben.glisan@enron.com'
p429
sg11
I52
sg12
g5
sg13
g5
sg14
L75611250625L
sg15
I874
sg16
g5
sg17
I16
sg18
I200308
sg19
g5
sg20
I600000
sg21
I778546
sg22
L360000000000L
sg23
I6
sg24
L148015633984L
sg26
I393818
sg27
I274975
sg28
I1272284
sg29
I384728
ss.