(lp0
S'poi'
p1
aS'shared_receipt_with_poi'
p2
aS'from_poi_to_this_person'
p3
aS'from_this_person_to_poi'
p4
aS'total_payments'
p5
aS'restricted_stock'
p6
aS'other'
p7
aS'restricted_stock_deferred'
p8
aS'total_stock_value'
p9
aS'expenses'
p10
aS'salary'
p11
aS'deferral_payments'
p12
aS'loan_advances'
p13
aS'director_fees'
p14
aS'deferred_income'
p15
aS'long_term_incentive'
p16
aS'bonus_square'
p17
aS'exercised_stock_square'
p18
a.